0000341b T Java_org_bridj_PerfLib_testASinB
000033e2 T Java_org_bridj_PerfLib_testAddJNI
00007f10 a _DYNAMIC
00007ff4 a _GLOBAL_OFFSET_TABLE_
00004e8f t _GLOBAL__I_ntest
         w _Jv_RegisterClasses
         U _Unwind_Resume@@GCC_3.0
000036e3 T _Z10createTestv
00003aeb T _Z10newWStringv
00003ad8 T _Z10stringCStrPSs
00003369 T _Z10testSumIntPKdi
0000391c T _Z10test_pvoidv
00003a01 T _Z11forwardCallPFiiiEii
00003635 T _Z11sizeOfCtestv
000036d5 T _Z11testIntEnumi5ETest
00003ba2 T _Z11wstringCStrPSbIwSt11char_traitsIwESaIwEE
00003ab4 T _Z12deleteStringPSs
000039f7 T _Z12getAdder_rawv
00003a9a T _Z12resizeStringPSsj
0000363f T _Z12sizeOfCtest2v
000036cb T _Z12testVoidEnumv
00003985 T _Z12test_fun_intv
00003b7e T _Z13deleteWStringPSbIwSt11char_traitsIwESaIwEE
000039de T _Z13getAdder_longv
00003a80 T _Z13reserveStringPSsj
00003b64 T _Z13resizeWStringPSbIwSt11char_traitsIwESaIwEEj
00003bf1 T _Z13test_add9_intiiiiiiiii
00003958 T _Z13test_fun_voidv
00003bb5 T _Z13test_incr_inti
00003a66 T _Z14appendToStringPSsPKc
000039d4 T _Z14getAdder_pvoidv
00003b4a T _Z14reserveWStringPSbIwSt11char_traitsIwESaIwEEj
000044c2 T _Z14test_add9_byteaaaaaaaaa
0000478d T _Z14test_add9_charttttttttt
00003d95 T _Z14test_add9_longxxxxxxxxx
0000446d T _Z14test_incr_bytea
00004733 T _Z14test_incr_chart
00003d15 T _Z14test_incr_longx
00003949 T _Z14test_int_floatf
000039b2 T _Z14test_int_shorts
00003b30 T _Z15appendToWStringPSbIwSt11char_traitsIwESaIwEEPKw
000049f7 T _Z15test_add9_floatfffffffff
000041d1 T _Z15test_add9_shortsssssssss
000049b4 T _Z15test_incr_floatf
00004177 T _Z15test_incr_shorts
0000393f T _Z15test_int_doublev
00004bdd T _Z16test_add9_doubleddddddddd
00004b79 T _Z16test_incr_doubled
0000393a T _Z16test_void_doublev
0000339c T _Z17testInPlaceSquarePdj
00003cc5 T _Z17test_add9_int_outiiiiiiiiiPi
0000397b T _Z17test_fun_void_intv
00003bc0 T _Z17test_incr_int_outiPi
00004670 T _Z18test_add9_byte_outaaaaaaaaaPa
000048eb T _Z18test_add9_char_outtttttttttPt
00004076 T _Z18test_add9_long_outxxxxxxxxxPx
0000398f T _Z18test_fun_int_floatv
00004482 T _Z18test_incr_byte_outaPa
00004749 T _Z18test_incr_char_outtPt
00003d35 T _Z18test_incr_long_outxPx
00004b29 T _Z19test_add9_float_outfffffffffPf
000043a4 T _Z19test_add9_short_outsssssssssPs
000049c0 T _Z19test_incr_float_outfPf
0000418d T _Z19test_incr_short_outsPs
00004d90 T _Z20test_add9_double_outdddddddddPd
00004b94 T _Z20test_incr_double_outdPd
00003bd8 T _Z21test_callback_int_intPFiiEi
00003962 T _Z21test_fun_void__doubled
00003658 T _Z22testIndirectVirtualAddP5Ctestii
000044a1 T _Z23test_callback_byte_bytePFaaEa
0000476a T _Z23test_callback_char_charPFttEt
00003d63 T _Z23test_callback_long_longPFxxEx
000049d8 T _Z25test_callback_float_floatPFffEf
000041ae T _Z25test_callback_short_shortPFssEs
00003999 T _Z26test_fun_int_float__doubled
00004bb8 T _Z27test_callback_double_doublePFddEd
000039c6 T _Z3addii
00004e4f t _Z41__static_initialization_and_destruction_0ii
000032b1 T _Z6sinInti
000032b9 T _Z7testSumPKdj
000039ed T _Z8getAdderv
000036c3 T _Z8testEnum5ETest
000032f6 T _Z8testSumiPKdi
00003930 T _Z8test_intv
000032ac T _Z8voidTestv
00003a21 T _Z9newStringv
00003333 T _Z9testSumllPKdi
00003926 T _Z9test_pintv
00003953 T _Z9test_voidv
00008020 b _ZGVZN6Ctest28toStringEvE1s
00004ff4 W _ZN24InvisibleSourcesTemplateILi10ESsE10createSomeEv
0000504e W _ZN24InvisibleSourcesTemplateILi10ESsE10deleteSomeEPSs
00004fb8 W _ZN24InvisibleSourcesTemplateILi10ESsEC1Ei
00004f7c W _ZN24InvisibleSourcesTemplateILi10ESsEC2Ei
00004f24 W _ZN24InvisibleSourcesTemplateILi10EiE10createSomeEv
00004f54 W _ZN24InvisibleSourcesTemplateILi10EiE10deleteSomeEPi
00004ee8 W _ZN24InvisibleSourcesTemplateILi10EiEC1Ei
00004eac W _ZN24InvisibleSourcesTemplateILi10EiEC2Ei
000036de T _ZN5Ctest11static_voidEv
0000368c T _ZN5Ctest14testAddStdCallEPvii
0000364a T _ZN5Ctest14testVirtualAddEii
000036a8 T _ZN5Ctest21testVirtualAddStdCallEPvii
0000367e T _ZN5Ctest7testAddEii
000034f4 T _ZN5CtestC1Ei
00003498 T _ZN5CtestC1Ev
000034d2 T _ZN5CtestC2Ei
0000345e T _ZN5CtestC2Ev
0000353c T _ZN5CtestD1Ev
00003516 T _ZN5CtestD2Ev
00005170 W _ZN5Temp1IdE4tempEd
0000514a W _ZN5Temp1IdED0Ev
00005124 W _ZN5Temp1IdED1Ev
000050fe W _ZN5Temp1IdED2Ev
000050f8 W _ZN5Temp1IiE4tempEi
000050d2 W _ZN5Temp1IiED0Ev
000050ac W _ZN5Temp1IiED1Ev
00005086 W _ZN5Temp1IiED2Ev
000052f0 W _ZN5Temp2IddE4tempEdd
000052ca W _ZN5Temp2IddED0Ev
000052a4 W _ZN5Temp2IddED1Ev
0000527e W _ZN5Temp2IddED2Ev
000051f6 W _ZN5Temp2IiiE4tempEii
000051d0 W _ZN5Temp2IiiED0Ev
000051aa W _ZN5Temp2IiiED1Ev
00005184 W _ZN5Temp2IiiED2Ev
0000526e W _ZN5Temp2IisE4tempEis
00005248 W _ZN5Temp2IisED0Ev
00005222 W _ZN5Temp2IisED1Ev
000051fc W _ZN5Temp2IisED2Ev
000053fa W _ZN5TempVIdLi33EE4tempEd
000053d4 W _ZN5TempVIdLi33EED0Ev
000053ae W _ZN5TempVIdLi33EED1Ev
00005388 W _ZN5TempVIdLi33EED2Ev
00005382 W _ZN5TempVIiLi66EE4tempEi
0000535c W _ZN5TempVIiLi66EED0Ev
00005336 W _ZN5TempVIiLi66EED1Ev
00005310 W _ZN5TempVIiLi66EED2Ev
000038f0 T _ZN6Ctest214testVirtualAddEii
000038e2 T _ZN6Ctest218setDestructedStateEi
00003906 T _ZN6Ctest27testAddEii
000038d4 T _ZN6Ctest28setStateEPi
00003562 T _ZN6Ctest28toStringEv
00003794 T _ZN6Ctest2C1Ev
0000372c T _ZN6Ctest2C2Ev
00003868 T _ZN6Ctest2D1Ev
000037fc T _ZN6Ctest2D2Ev
         U _ZNKSbIwSt11char_traitsIwESaIwEE5c_strEv@@GLIBCXX_3.4
         U _ZNKSs5c_strEv@@GLIBCXX_3.4
         U _ZNSaIcEC1Ev@@GLIBCXX_3.4
         U _ZNSaIcED1Ev@@GLIBCXX_3.4
         U _ZNSbIwSt11char_traitsIwESaIwEE6resizeEj@@GLIBCXX_3.4
         U _ZNSbIwSt11char_traitsIwESaIwEE7reserveEj@@GLIBCXX_3.4
         U _ZNSbIwSt11char_traitsIwESaIwEEC1Ev@@GLIBCXX_3.4
         U _ZNSbIwSt11char_traitsIwESaIwEED1Ev@@GLIBCXX_3.4
         U _ZNSbIwSt11char_traitsIwESaIwEEpLEPKw@@GLIBCXX_3.4
         U _ZNSolsEi@@GLIBCXX_3.4
         U _ZNSs6resizeEj@@GLIBCXX_3.4
         U _ZNSs7reserveEj@@GLIBCXX_3.4
         U _ZNSsC1EPKcRKSaIcE@@GLIBCXX_3.4
         U _ZNSsC1Ev@@GLIBCXX_3.4
         U _ZNSsD1Ev@@GLIBCXX_3.4
         U _ZNSspLEPKc@@GLIBCXX_3.4
         U _ZNSt8ios_base4InitC1Ev@@GLIBCXX_3.4
         U _ZNSt8ios_base4InitD1Ev@@GLIBCXX_3.4
         U _ZSt4cout@@GLIBCXX_3.4
0000801c b _ZStL8__ioinit
         U _ZStlsISt11char_traitsIcEERSt13basic_ostreamIcT_ES5_PKc@@GLIBCXX_3.4
000056e0 V _ZTI5Ctest
000056a4 V _ZTI5Temp1IdE
000056b8 V _ZTI5Temp1IiE
00005668 V _ZTI5Temp2IddE
00005690 V _ZTI5Temp2IiiE
0000567c V _ZTI5Temp2IisE
00005638 V _ZTI5TempVIdLi33EE
00005650 V _ZTI5TempVIiLi66EE
000056cc V _ZTI6Ctest2
000056e8 V _ZTS5Ctest
000056ac V _ZTS5Temp1IdE
000056c0 V _ZTS5Temp1IiE
00005670 V _ZTS5Temp2IddE
00005698 V _ZTS5Temp2IiiE
00005684 V _ZTS5Temp2IisE
00005640 V _ZTS5TempVIdLi33EE
00005658 V _ZTS5TempVIiLi66EE
000056d8 V _ZTS6Ctest2
00005628 V _ZTV5Ctest
000055f8 V _ZTV5Temp1IdE
00005608 V _ZTV5Temp1IiE
000055c8 V _ZTV5Temp2IddE
000055e8 V _ZTV5Temp2IiiE
000055d8 V _ZTV5Temp2IisE
000055a8 V _ZTV5TempVIdLi33EE
000055b8 V _ZTV5TempVIiLi66EE
00005618 V _ZTV6Ctest2
         U _ZTVN10__cxxabiv117__class_type_infoE@@CXXABI_1.3
         U _ZTVN10__cxxabiv120__si_class_type_infoE@@CXXABI_1.3
00005540 r _ZZL18__gthread_active_pvE20__gthread_active_ptr
00008028 b _ZZN6Ctest28toStringEvE1s
         U _ZdlPv@@GLIBCXX_3.4
         U _Znwj@@GLIBCXX_3.4
00007f00 d __CTOR_END__
00007ef8 d __CTOR_LIST__
00007f08 d __DTOR_END__
00007f04 d __DTOR_LIST__
00006bfc r __FRAME_END__
00007f0c d __JCR_END__
00007f0c d __JCR_LIST__
0000800c A __bss_start
         U __cxa_atexit@@GLIBC_2.1.3
         w __cxa_finalize@@GLIBC_2.1.3
         U __cxa_guard_abort@@CXXABI_1.3
         U __cxa_guard_acquire@@CXXABI_1.3
         U __cxa_guard_release@@CXXABI_1.3
00005410 t __do_global_ctors_aux
000031f0 t __do_global_dtors_aux
00008008 d __dso_handle
         w __gmon_start__
         U __gxx_personality_v0@@CXXABI_1.3
000032a7 t __i686.get_pc_thunk.bx
0000800c A _edata
0000802c A _end
00005448 T _fini
00003188 T _init
00008010 b completed.7065
00008014 b dtor_idx.7067
00003270 t frame_dummy
00008018 B ntest
000033dd T otherFunc
         w pthread_cancel
         U sin
0000343c T testASinB
000033f5 T testAddDyncall
00003408 T testAddJNA
